; Function Attrs: nounwind uwtable
define i32 @CORD_printf(ptr noundef %0, ...) local_unnamed_addr #0 {
  %2 = alloca [1 x %struct.__va_list_tag], align 16
  %3 = alloca ptr, align 8
  call void @llvm.lifetime.start.p0(i64 24, ptr nonnull %2) #11
  call void @llvm.lifetime.start.p0(i64 8, ptr nonnull %3) #11
  store ptr null, ptr %3, align 8, !tbaa !31
  call void @llvm.va_start.p0(ptr nonnull %2)
  %4 = call i32 @CORD_vsprintf(ptr noundef nonnull %3, ptr noundef %0, ptr noundef nonnull %2)
  call void @llvm.va_end.p0(ptr nonnull %2)
  %5 = icmp sgt i32 %4, 0
  br i1 %5, label %6, label %10

6:                                                ; preds = %1
  %7 = load ptr, ptr %3, align 8, !tbaa !31
  %8 = load ptr, ptr @stdout, align 8, !tbaa !32
  %9 = call i32 @CORD_put(ptr noundef %7, ptr noundef %8) #11
  br label %10

10:                                               ; preds = %6, %1
  call void @llvm.lifetime.end.p0(i64 8, ptr nonnull %3) #11
  call void @llvm.lifetime.end.p0(i64 24, ptr nonnull %2) #11
  ret i32 %4
}